target datalayout = "e-m:e-p270:32:32-p271:32:32-p272:64:64-i64:64-i128:128-f80:128-n8:16:32:64-S128"
target triple = "x86_64-pc-linux-gnu"

%struct.rsa_gen_ctx = type { ptr, ptr, i32, i64, ptr, i64, %struct.rsa_pss_params_30_st, i32, ptr, ptr }
%struct.rsa_pss_params_30_st = type { i32, %struct.anon, i32, i32 }
%struct.anon = type { i32, i32 }
%struct.ossl_param_st = type { ptr, i32, ptr, i64, i64 }

@.str = private unnamed_addr constant [57 x i8] c"../openssl/providers/implementations/keymgmt/rsa_kmgmt.c\00", align 1
@.str.1 = private unnamed_addr constant [5 x i8] c"bits\00", align 1
@__func__.rsa_gen_set_params = private unnamed_addr constant [19 x i8] c"rsa_gen_set_params\00", align 1
@.str.2 = private unnamed_addr constant [7 x i8] c"primes\00", align 1
@.str.3 = private unnamed_addr constant [2 x i8] c"e\00", align 1

; Function Attrs: nounwind uwtable
define internal i32 @pss_params_fromdata(ptr noundef %0, ptr noundef %1, ptr noundef %2, i32 noundef %3, ptr noundef %4) #0 {
  %6 = alloca i32, align 4
  %7 = alloca ptr, align 8
  %8 = alloca ptr, align 8
  %9 = alloca ptr, align 8
  %10 = alloca i32, align 4
  %11 = alloca ptr, align 8
  store ptr %0, ptr %7, align 8, !tbaa !33
  store ptr %1, ptr %8, align 8, !tbaa !41
  store ptr %2, ptr %9, align 8, !tbaa !13
  store i32 %3, ptr %10, align 4, !tbaa !11
  store ptr %4, ptr %11, align 8, !tbaa !7
  %12 = load ptr, ptr %7, align 8, !tbaa !33
  %13 = load ptr, ptr %8, align 8, !tbaa !41
  %14 = load ptr, ptr %9, align 8, !tbaa !13
  %15 = load ptr, ptr %11, align 8, !tbaa !7
  %16 = call i32 @ossl_rsa_pss_params_30_fromdata(ptr noundef %12, ptr noundef %13, ptr noundef %14, ptr noundef %15)
  %17 = icmp ne i32 %16, 0
  br i1 %17, label %19, label %18

18:                                               ; preds = %5
  store i32 0, ptr %6, align 4
  br label %28

19:                                               ; preds = %5
  %20 = load i32, ptr %10, align 4, !tbaa !11
  %21 = icmp ne i32 %20, 4096
  br i1 %21, label %22, label %27

22:                                               ; preds = %19
  %23 = load ptr, ptr %7, align 8, !tbaa !33
  %24 = call i32 @ossl_rsa_pss_params_30_is_unrestricted(ptr noundef %23)
  %25 = icmp ne i32 %24, 0
  br i1 %25, label %27, label %26

26:                                               ; preds = %22
  store i32 0, ptr %6, align 4
  br label %28

27:                                               ; preds = %22, %19
  store i32 1, ptr %6, align 4
  br label %28

28:                                               ; preds = %27, %26, %18
  %29 = load i32, ptr %6, align 4
  ret i32 %29
}

; Function Attrs: inlinehint nounwind uwtable
define internal i32 @ossl_param_is_empty(ptr noundef %0) #3 {
  %2 = alloca ptr, align 8
  store ptr %0, ptr %2, align 8, !tbaa !13
  %3 = load ptr, ptr %2, align 8, !tbaa !13
  %4 = icmp eq ptr %3, null
  br i1 %4, label %10, label %5

5:                                                ; preds = %1
  %6 = load ptr, ptr %2, align 8, !tbaa !13
  %7 = getelementptr inbounds nuw %struct.ossl_param_st, ptr %6, i32 0, i32 0
  %8 = load ptr, ptr %7, align 8, !tbaa !39
  %9 = icmp eq ptr %8, null
  br label %10

10:                                               ; preds = %5, %1
  %11 = phi i1 [ true, %1 ], [ %9, %5 ]
  %12 = zext i1 %11 to i32
  ret i32 %12
}

; Function Attrs: nounwind uwtable
define internal i32 @rsa_gen_set_params(ptr noundef %0, ptr noundef %1) #0 {
  %3 = alloca i32, align 4
  %4 = alloca ptr, align 8
  %5 = alloca ptr, align 8
  %6 = alloca ptr, align 8
  %7 = alloca ptr, align 8
  %8 = alloca i32, align 4
  store ptr %0, ptr %4, align 8, !tbaa !3
  store ptr %1, ptr %5, align 8, !tbaa !13
  call void @llvm.lifetime.start.p0(i64 8, ptr %6) #6
  %9 = load ptr, ptr %4, align 8, !tbaa !3
  store ptr %9, ptr %6, align 8, !tbaa !15
  call void @llvm.lifetime.start.p0(i64 8, ptr %7) #6
  %10 = load ptr, ptr %5, align 8, !tbaa !13
  %11 = call i32 @ossl_param_is_empty(ptr noundef %10)
  %12 = icmp ne i32 %11, 0
  br i1 %12, label %13, label %14

13:                                               ; preds = %2
  store i32 1, ptr %3, align 4
  store i32 1, ptr %8, align 4
  br label %75

14:                                               ; preds = %2
  %15 = load ptr, ptr %5, align 8, !tbaa !13
  %16 = call ptr @OSSL_PARAM_locate_const(ptr noundef %15, ptr noundef @.str.1)
  store ptr %16, ptr %7, align 8, !tbaa !13
  %17 = icmp ne ptr %16, null
  br i1 %17, label %18, label %32

18:                                               ; preds = %14
  %19 = load ptr, ptr %7, align 8, !tbaa !13
  %20 = load ptr, ptr %6, align 8, !tbaa !15
  %21 = getelementptr inbounds nuw %struct.rsa_gen_ctx, ptr %20, i32 0, i32 3
  %22 = call i32 @OSSL_PARAM_get_size_t(ptr noundef %19, ptr noundef %21)
  %23 = icmp ne i32 %22, 0
  br i1 %23, label %25, label %24

24:                                               ; preds = %18
  store i32 0, ptr %3, align 4
  store i32 1, ptr %8, align 4
  br label %75

25:                                               ; preds = %18
  %26 = load ptr, ptr %6, align 8, !tbaa !15
  %27 = getelementptr inbounds nuw %struct.rsa_gen_ctx, ptr %26, i32 0, i32 3
  %28 = load i64, ptr %27, align 8, !tbaa !17
  %29 = icmp ult i64 %28, 512
  br i1 %29, label %30, label %31

30:                                               ; preds = %25
  call void @ERR_new()
  call void @ERR_set_debug(ptr noundef @.str, i32 noundef 514, ptr noundef @__func__.rsa_gen_set_params)
  call void (i32, i32, ptr, ...) @ERR_set_error(i32 noundef 57, i32 noundef 171, ptr noundef null)
  store i32 0, ptr %3, align 4
  store i32 1, ptr %8, align 4
  br label %75

31:                                               ; preds = %25
  br label %32

32:                                               ; preds = %31, %14
  %33 = load ptr, ptr %5, align 8, !tbaa !13
  %34 = call ptr @OSSL_PARAM_locate_const(ptr noundef %33, ptr noundef @.str.2)
  store ptr %34, ptr %7, align 8, !tbaa !13
  %35 = icmp ne ptr %34, null
  br i1 %35, label %36, label %43

36:                                               ; preds = %32
  %37 = load ptr, ptr %7, align 8, !tbaa !13
  %38 = load ptr, ptr %6, align 8, !tbaa !15
  %39 = getelementptr inbounds nuw %struct.rsa_gen_ctx, ptr %38, i32 0, i32 5
  %40 = call i32 @OSSL_PARAM_get_size_t(ptr noundef %37, ptr noundef %39)
  %41 = icmp ne i32 %40, 0
  br i1 %41, label %43, label %42

42:                                               ; preds = %36
  store i32 0, ptr %3, align 4
  store i32 1, ptr %8, align 4
  br label %75

43:                                               ; preds = %36, %32
  %44 = load ptr, ptr %5, align 8, !tbaa !13
  %45 = call ptr @OSSL_PARAM_locate_const(ptr noundef %44, ptr noundef @.str.3)
  store ptr %45, ptr %7, align 8, !tbaa !13
  %46 = icmp ne ptr %45, null
  br i1 %46, label %47, label %54

47:                                               ; preds = %43
  %48 = load ptr, ptr %7, align 8, !tbaa !13
  %49 = load ptr, ptr %6, align 8, !tbaa !15
  %50 = getelementptr inbounds nuw %struct.rsa_gen_ctx, ptr %49, i32 0, i32 4
  %51 = call i32 @OSSL_PARAM_get_BN(ptr noundef %48, ptr noundef %50)
  %52 = icmp ne i32 %51, 0
  br i1 %52, label %54, label %53

53:                                               ; preds = %47
  store i32 0, ptr %3, align 4
  store i32 1, ptr %8, align 4
  br label %75

54:                                               ; preds = %47, %43
  %55 = load ptr, ptr %6, align 8, !tbaa !15
  %56 = getelementptr inbounds nuw %struct.rsa_gen_ctx, ptr %55, i32 0, i32 2
  %57 = load i32, ptr %56, align 8, !tbaa !24
  %58 = icmp eq i32 %57, 4096
  br i1 %58, label %59, label %74

59:                                               ; preds = %54
  %60 = load ptr, ptr %6, align 8, !tbaa !15
  %61 = getelementptr inbounds nuw %struct.rsa_gen_ctx, ptr %60, i32 0, i32 6
  %62 = load ptr, ptr %6, align 8, !tbaa !15
  %63 = getelementptr inbounds nuw %struct.rsa_gen_ctx, ptr %62, i32 0, i32 7
  %64 = load ptr, ptr %5, align 8, !tbaa !13
  %65 = load ptr, ptr %6, align 8, !tbaa !15
  %66 = getelementptr inbounds nuw %struct.rsa_gen_ctx, ptr %65, i32 0, i32 2
  %67 = load i32, ptr %66, align 8, !tbaa !24
  %68 = load ptr, ptr %6, align 8, !tbaa !15
  %69 = getelementptr inbounds nuw %struct.rsa_gen_ctx, ptr %68, i32 0, i32 0
  %70 = load ptr, ptr %69, align 8, !tbaa !25
  %71 = call i32 @pss_params_fromdata(ptr noundef %61, ptr noundef %63, ptr noundef %64, i32 noundef %67, ptr noundef %70)
  %72 = icmp ne i32 %71, 0
  br i1 %72, label %74, label %73

73:                                               ; preds = %59
  store i32 0, ptr %3, align 4
  store i32 1, ptr %8, align 4
  br label %75

74:                                               ; preds = %59, %54
  store i32 1, ptr %3, align 4
  store i32 1, ptr %8, align 4
  br label %75

75:                                               ; preds = %74, %73, %53, %42, %30, %24, %13
  call void @llvm.lifetime.end.p0(i64 8, ptr %7) #6
  call void @llvm.lifetime.end.p0(i64 8, ptr %6) #6
  %76 = load i32, ptr %3, align 4
  ret i32 %76
}