; Function Attrs: nounwind uwtable
define internal range(i32 0, 2) i32 @rsa_gen_set_params(ptr noundef %0, ptr noundef %1) #0 {
  %3 = icmp eq ptr %1, null
  br i1 %3, label %pss_params_fromdata.exit, label %ossl_param_is_empty.exit

ossl_param_is_empty.exit:                         ; preds = %2
  %4 = load ptr, ptr %1, align 8, !tbaa !3
  %.not = icmp eq ptr %4, null
  br i1 %.not, label %pss_params_fromdata.exit, label %5

5:                                                ; preds = %ossl_param_is_empty.exit
  %6 = tail call ptr @OSSL_PARAM_locate_const(ptr noundef nonnull %1, ptr noundef nonnull @.str.1) #6
  %.not22 = icmp eq ptr %6, null
  br i1 %.not22, label %14, label %7

7:                                                ; preds = %5
  %8 = getelementptr inbounds nuw i8, ptr %0, i64 24
  %9 = tail call i32 @OSSL_PARAM_get_size_t(ptr noundef nonnull %6, ptr noundef nonnull %8) #6
  %.not23 = icmp eq i32 %9, 0
  br i1 %.not23, label %pss_params_fromdata.exit, label %10

10:                                               ; preds = %7
  %11 = load i64, ptr %8, align 8, !tbaa !11
  %12 = icmp ult i64 %11, 512
  br i1 %12, label %13, label %14

13:                                               ; preds = %10
  tail call void @ERR_new() #6
  tail call void @ERR_set_debug(ptr noundef nonnull @.str, i32 noundef 514, ptr noundef nonnull @__func__.rsa_gen_set_params) #6
  tail call void (i32, i32, ptr, ...) @ERR_set_error(i32 noundef 57, i32 noundef 171, ptr noundef null) #6
  br label %pss_params_fromdata.exit

14:                                               ; preds = %10, %5
  %15 = tail call ptr @OSSL_PARAM_locate_const(ptr noundef nonnull %1, ptr noundef nonnull @.str.2) #6
  %.not24 = icmp eq ptr %15, null
  br i1 %.not24, label %19, label %16

16:                                               ; preds = %14
  %17 = getelementptr inbounds nuw i8, ptr %0, i64 40
  %18 = tail call i32 @OSSL_PARAM_get_size_t(ptr noundef nonnull %15, ptr noundef nonnull %17) #6
  %.not25 = icmp eq i32 %18, 0
  br i1 %.not25, label %pss_params_fromdata.exit, label %19

19:                                               ; preds = %16, %14
  %20 = tail call ptr @OSSL_PARAM_locate_const(ptr noundef nonnull %1, ptr noundef nonnull @.str.3) #6
  %.not26 = icmp eq ptr %20, null
  br i1 %.not26, label %24, label %21

21:                                               ; preds = %19
  %22 = getelementptr inbounds nuw i8, ptr %0, i64 32
  %23 = tail call i32 @OSSL_PARAM_get_BN(ptr noundef nonnull %20, ptr noundef nonnull %22) #6
  %.not27 = icmp eq i32 %23, 0
  br i1 %.not27, label %pss_params_fromdata.exit, label %24

24:                                               ; preds = %21, %19
  %25 = getelementptr inbounds nuw i8, ptr %0, i64 16
  %26 = load i32, ptr %25, align 8, !tbaa !17
  %27 = icmp eq i32 %26, 4096
  br i1 %27, label %28, label %pss_params_fromdata.exit

28:                                               ; preds = %24
  %29 = getelementptr inbounds nuw i8, ptr %0, i64 48
  %30 = getelementptr inbounds nuw i8, ptr %0, i64 68
  %31 = load ptr, ptr %0, align 8, !tbaa !18
  %32 = tail call i32 @ossl_rsa_pss_params_30_fromdata(ptr noundef nonnull %29, ptr noundef nonnull %30, ptr noundef nonnull %1, ptr noundef %31) #6
  %.not.i = icmp ne i32 %32, 0
  %spec.select = zext i1 %.not.i to i32
  br label %pss_params_fromdata.exit

pss_params_fromdata.exit:                         ; preds = %28, %2, %24, %21, %16, %7, %ossl_param_is_empty.exit, %13
  %.0 = phi i32 [ 0, %13 ], [ 1, %ossl_param_is_empty.exit ], [ 0, %7 ], [ 0, %16 ], [ 0, %21 ], [ 1, %24 ], [ 1, %2 ], [ %spec.select, %28 ]
  ret i32 %.0
}